target datalayout = "e-m:e-p270:32:32-p271:32:32-p272:64:64-i64:64-i128:128-f80:128-n8:16:32:64-S128"
target triple = "x86_64-pc-linux-gnu"

; Function Attrs: mustprogress nounwind uwtable
define hidden void @_ZN12GCInitLogger9print_allEv(ptr noundef nonnull align 8 dereferenceable(8) %0) #1 align 2 {
  %2 = alloca ptr, align 8
  store ptr %0, ptr %2, align 8
  %3 = load ptr, ptr %2, align 8
  %4 = load ptr, ptr %3, align 8
  %5 = getelementptr inbounds ptr, ptr %4, i64 0
  %6 = load ptr, ptr %5, align 8
  call void %6(ptr noundef nonnull align 8 dereferenceable(8) %3)
  %7 = load ptr, ptr %3, align 8
  %8 = getelementptr inbounds ptr, ptr %7, i64 1
  %9 = load ptr, ptr %8, align 8
  call void %9(ptr noundef nonnull align 8 dereferenceable(8) %3)
  %10 = load ptr, ptr %3, align 8
  %11 = getelementptr inbounds ptr, ptr %10, i64 2
  %12 = load ptr, ptr %11, align 8
  call void %12(ptr noundef nonnull align 8 dereferenceable(8) %3)
  %13 = load ptr, ptr %3, align 8
  %14 = getelementptr inbounds ptr, ptr %13, i64 3
  %15 = load ptr, ptr %14, align 8
  call void %15(ptr noundef nonnull align 8 dereferenceable(8) %3)
  %16 = load ptr, ptr %3, align 8
  %17 = getelementptr inbounds ptr, ptr %16, i64 4
  %18 = load ptr, ptr %17, align 8
  call void %18(ptr noundef nonnull align 8 dereferenceable(8) %3)
  %19 = load ptr, ptr %3, align 8
  %20 = getelementptr inbounds ptr, ptr %19, i64 5
  %21 = load ptr, ptr %20, align 8
  call void %21(ptr noundef nonnull align 8 dereferenceable(8) %3)
  %22 = load ptr, ptr %3, align 8
  %23 = getelementptr inbounds ptr, ptr %22, i64 6
  %24 = load ptr, ptr %23, align 8
  call void %24(ptr noundef nonnull align 8 dereferenceable(8) %3)
  %25 = load ptr, ptr %3, align 8
  %26 = getelementptr inbounds ptr, ptr %25, i64 7
  %27 = load ptr, ptr %26, align 8
  call void %27(ptr noundef nonnull align 8 dereferenceable(8) %3)
  %28 = load ptr, ptr %3, align 8
  %29 = getelementptr inbounds ptr, ptr %28, i64 8
  %30 = load ptr, ptr %29, align 8
  call void %30(ptr noundef nonnull align 8 dereferenceable(8) %3)
  ret void
}